target datalayout = "e-m:e-p270:32:32-p271:32:32-p272:64:64-i64:64-i128:128-f80:128-n8:16:32:64-S128"
target triple = "x86_64-pc-linux-gnu"

%struct.pmix_mca_base_framework_t = type { ptr, ptr, ptr, ptr, ptr, ptr, i32, i32, ptr, ptr, i32, i32, %struct.pmix_list_t, %struct.pmix_list_t }
%struct.pmix_list_t = type { %struct.pmix_object_t, %struct.pmix_list_item_t, i64 }
%struct.pmix_object_t = type { %union.pthread_mutex_t, ptr, i32, %struct.pmix_tma }
%union.pthread_mutex_t = type { %struct.__pthread_mutex_s }
%struct.__pthread_mutex_s = type { i32, i32, i32, i32, i32, i16, i16, %struct.__pthread_internal_list }
%struct.__pthread_internal_list = type { ptr, ptr }
%struct.pmix_tma = type { ptr, ptr, ptr, ptr, ptr, ptr, ptr, ptr }
%struct.pmix_list_item_t = type { %struct.pmix_object_t, ptr, ptr, i32 }
%struct.pmix_output_desc_t = type { i8, i8, i32, i8, i32, ptr, ptr, i32, ptr, i32, i8, i8, i8, i8, ptr, i32, i32 }
%struct.pmix_bfrop_type_info_t = type { %struct.pmix_object_t, i16, ptr, ptr, ptr, ptr, ptr }
%struct.pmix_pointer_array_t = type { %struct.pmix_object_t, i32, i32, i32, i32, i32, ptr, ptr }

@pmix_bfrops_base_framework = external global %struct.pmix_mca_base_framework_t, align 8
@pmix_output_info = external global [0 x %struct.pmix_output_desc_t], align 8
@.str.6 = private unnamed_addr constant [37 x i8] c"PMIX ERROR: %s in file %s at line %d\00", align 1
@.str.7 = private unnamed_addr constant [25 x i8] c"base/bfrop_base_unpack.c\00", align 1
@.str.43 = private unnamed_addr constant [29 x i8] c"pmix_bfrop_unpack: %d nspace\00", align 1

; Function Attrs: inlinehint nounwind uwtable
define internal ptr @pmix_pointer_array_get_item(ptr noundef %0, i32 noundef %1) #3 {
  %3 = alloca ptr, align 8
  %4 = alloca ptr, align 8
  %5 = alloca i32, align 4
  %6 = alloca ptr, align 8
  %7 = alloca i32, align 4
  store ptr %0, ptr %4, align 8, !tbaa !3
  store i32 %1, ptr %5, align 4, !tbaa !13
  call void @llvm.lifetime.start.p0(i64 8, ptr %6) #11
  %8 = load i32, ptr %5, align 4, !tbaa !13
  %9 = icmp sgt i32 0, %8
  br i1 %9, label %16, label %10

10:                                               ; preds = %2
  %11 = load ptr, ptr %4, align 8, !tbaa !3
  %12 = getelementptr inbounds nuw %struct.pmix_pointer_array_t, ptr %11, i32 0, i32 3
  %13 = load i32, ptr %12, align 8, !tbaa !33
  %14 = load i32, ptr %5, align 4, !tbaa !13
  %15 = icmp sle i32 %13, %14
  br label %16

16:                                               ; preds = %10, %2
  %17 = phi i1 [ true, %2 ], [ %15, %10 ]
  %18 = xor i1 %17, true
  %19 = xor i1 %18, true
  %20 = zext i1 %19 to i32
  %21 = sext i32 %20 to i64
  %22 = call i64 @llvm.expect.i64(i64 %21, i64 0)
  %23 = icmp ne i64 %22, 0
  br i1 %23, label %24, label %25

24:                                               ; preds = %16
  store ptr null, ptr %3, align 8
  store i32 1, ptr %7, align 4
  br label %34

25:                                               ; preds = %16
  %26 = load ptr, ptr %4, align 8, !tbaa !3
  %27 = getelementptr inbounds nuw %struct.pmix_pointer_array_t, ptr %26, i32 0, i32 7
  %28 = load ptr, ptr %27, align 8, !tbaa !36
  %29 = load i32, ptr %5, align 4, !tbaa !13
  %30 = sext i32 %29 to i64
  %31 = getelementptr inbounds ptr, ptr %28, i64 %30
  %32 = load ptr, ptr %31, align 8, !tbaa !8
  store ptr %32, ptr %6, align 8, !tbaa !8
  %33 = load ptr, ptr %6, align 8, !tbaa !8
  store ptr %33, ptr %3, align 8
  store i32 1, ptr %7, align 4
  br label %34

34:                                               ; preds = %25, %24
  call void @llvm.lifetime.end.p0(i64 8, ptr %6) #11
  %35 = load ptr, ptr %3, align 8
  ret ptr %35
}

; Function Attrs: nounwind uwtable
define i32 @pmix_bfrops_base_unpack_nspace(ptr noundef %0, ptr noundef %1, ptr noundef %2, ptr noundef %3, i16 noundef zeroext %4) #0 {
  %6 = alloca i32, align 4
  %7 = alloca ptr, align 8
  %8 = alloca ptr, align 8
  %9 = alloca ptr, align 8
  %10 = alloca ptr, align 8
  %11 = alloca i16, align 2
  %12 = alloca ptr, align 8
  %13 = alloca i32, align 4
  %14 = alloca i32, align 4
  %15 = alloca i32, align 4
  %16 = alloca i32, align 4
  %17 = alloca ptr, align 8
  %18 = alloca ptr, align 8
  %19 = alloca i32, align 4
  store ptr %0, ptr %7, align 8, !tbaa !3
  store ptr %1, ptr %8, align 8, !tbaa !8
  store ptr %2, ptr %9, align 8, !tbaa !8
  store ptr %3, ptr %10, align 8, !tbaa !9
  store i16 %4, ptr %11, align 2, !tbaa !11
  call void @llvm.lifetime.start.p0(i64 8, ptr %12) #11
  call void @llvm.lifetime.start.p0(i64 4, ptr %13) #11
  call void @llvm.lifetime.start.p0(i64 4, ptr %14) #11
  call void @llvm.lifetime.start.p0(i64 4, ptr %15) #11
  call void @llvm.lifetime.start.p0(i64 4, ptr %16) #11
  call void @llvm.lifetime.start.p0(i64 8, ptr %17) #11
  %20 = load i32, ptr getelementptr inbounds nuw (%struct.pmix_mca_base_framework_t, ptr @pmix_bfrops_base_framework, i32 0, i32 11), align 4, !tbaa !15
  %21 = icmp sge i32 %20, 0
  br i1 %21, label %22, label %36

22:                                               ; preds = %5
  %23 = load i32, ptr getelementptr inbounds nuw (%struct.pmix_mca_base_framework_t, ptr @pmix_bfrops_base_framework, i32 0, i32 11), align 4, !tbaa !15
  %24 = icmp slt i32 %23, 64
  br i1 %24, label %25, label %36

25:                                               ; preds = %22
  %26 = load i32, ptr getelementptr inbounds nuw (%struct.pmix_mca_base_framework_t, ptr @pmix_bfrops_base_framework, i32 0, i32 11), align 4, !tbaa !15
  %27 = sext i32 %26 to i64
  %28 = getelementptr inbounds [0 x %struct.pmix_output_desc_t], ptr @pmix_output_info, i64 0, i64 %27
  %29 = getelementptr inbounds nuw %struct.pmix_output_desc_t, ptr %28, i32 0, i32 2
  %30 = load i32, ptr %29, align 4, !tbaa !26
  %31 = icmp sge i32 %30, 20
  br i1 %31, label %32, label %36

32:                                               ; preds = %25
  %33 = load i32, ptr getelementptr inbounds nuw (%struct.pmix_mca_base_framework_t, ptr @pmix_bfrops_base_framework, i32 0, i32 11), align 4, !tbaa !15
  %34 = load ptr, ptr %10, align 8, !tbaa !9
  %35 = load i32, ptr %34, align 4, !tbaa !13
  call void (i32, ptr, ...) @pmix_output(i32 noundef %33, ptr noundef @.str.43, i32 noundef %35)
  br label %36

36:                                               ; preds = %32, %25, %22, %5
  %37 = load ptr, ptr %9, align 8, !tbaa !8
  store ptr %37, ptr %12, align 8, !tbaa !38
  %38 = load ptr, ptr %10, align 8, !tbaa !9
  %39 = load i32, ptr %38, align 4, !tbaa !13
  store i32 %39, ptr %14, align 4, !tbaa !13
  store i32 0, ptr %13, align 4, !tbaa !13
  br label %40

40:                                               ; preds = %82, %36
  %41 = load i32, ptr %13, align 4, !tbaa !13
  %42 = load i32, ptr %14, align 4, !tbaa !13
  %43 = icmp slt i32 %41, %42
  br i1 %43, label %44, label %85

44:                                               ; preds = %40
  store i32 1, ptr %15, align 4, !tbaa !13
  br label %45

45:                                               ; preds = %44
  call void @llvm.lifetime.start.p0(i64 8, ptr %18) #11
  %46 = load ptr, ptr %7, align 8, !tbaa !3
  %47 = call ptr @pmix_pointer_array_get_item(ptr noundef %46, i32 noundef 3)
  store ptr %47, ptr %18, align 8, !tbaa !8
  %48 = load ptr, ptr %18, align 8, !tbaa !8
  %49 = icmp eq ptr null, %48
  br i1 %49, label %50, label %51

50:                                               ; preds = %45
  store i32 -16, ptr %16, align 4, !tbaa !13
  br label %58

51:                                               ; preds = %45
  %52 = load ptr, ptr %18, align 8, !tbaa !8
  %53 = getelementptr inbounds nuw %struct.pmix_bfrop_type_info_t, ptr %52, i32 0, i32 4
  %54 = load ptr, ptr %53, align 8, !tbaa !31
  %55 = load ptr, ptr %7, align 8, !tbaa !3
  %56 = load ptr, ptr %8, align 8, !tbaa !8
  %57 = call i32 %54(ptr noundef %55, ptr noundef %56, ptr noundef %17, ptr noundef %15, i16 noundef zeroext 3)
  store i32 %57, ptr %16, align 4, !tbaa !13
  br label %58

58:                                               ; preds = %51, %50
  call void @llvm.lifetime.end.p0(i64 8, ptr %18) #11
  br label %59

59:                                               ; preds = %58
  br label %60

60:                                               ; preds = %59
  %61 = load i32, ptr %16, align 4, !tbaa !13
  %62 = icmp ne i32 0, %61
  br i1 %62, label %63, label %74

63:                                               ; preds = %60
  br label %64

64:                                               ; preds = %63
  %65 = load i32, ptr %16, align 4, !tbaa !13
  %66 = icmp ne i32 -2, %65
  br i1 %66, label %67, label %70

67:                                               ; preds = %64
  %68 = load i32, ptr %16, align 4, !tbaa !13
  %69 = call ptr @PMIx_Error_string(i32 noundef %68)
  call void (i32, ptr, ...) @pmix_output(i32 noundef 0, ptr noundef @.str.6, ptr noundef %69, ptr noundef @.str.7, i32 noundef 1944)
  br label %70

70:                                               ; preds = %67, %64
  br label %71

71:                                               ; preds = %70
  br label %72

72:                                               ; preds = %71
  %73 = load i32, ptr %16, align 4, !tbaa !13
  store i32 %73, ptr %6, align 4
  store i32 1, ptr %19, align 4
  br label %86

74:                                               ; preds = %60
  %75 = load ptr, ptr %12, align 8, !tbaa !38
  %76 = load i32, ptr %13, align 4, !tbaa !13
  %77 = sext i32 %76 to i64
  %78 = getelementptr inbounds [256 x i8], ptr %75, i64 %77
  %79 = getelementptr inbounds [256 x i8], ptr %78, i64 0, i64 0
  %80 = load ptr, ptr %17, align 8, !tbaa !38
  call void @PMIx_Load_nspace(ptr noundef %79, ptr noundef %80)
  %81 = load ptr, ptr %17, align 8, !tbaa !38
  call void @free(ptr noundef %81) #11
  br label %82

82:                                               ; preds = %74
  %83 = load i32, ptr %13, align 4, !tbaa !13
  %84 = add nsw i32 %83, 1
  store i32 %84, ptr %13, align 4, !tbaa !13
  br label %40, !llvm.loop !212

85:                                               ; preds = %40
  store i32 0, ptr %6, align 4
  store i32 1, ptr %19, align 4
  br label %86

86:                                               ; preds = %85, %72
  call void @llvm.lifetime.end.p0(i64 8, ptr %17) #11
  call void @llvm.lifetime.end.p0(i64 4, ptr %16) #11
  call void @llvm.lifetime.end.p0(i64 4, ptr %15) #11
  call void @llvm.lifetime.end.p0(i64 4, ptr %14) #11
  call void @llvm.lifetime.end.p0(i64 4, ptr %13) #11
  call void @llvm.lifetime.end.p0(i64 8, ptr %12) #11
  %87 = load i32, ptr %6, align 4
  ret i32 %87
}