; Function Attrs: nounwind uwtable
define noundef i32 @pmix_bfrops_base_unpack_nspace(ptr noundef %0, ptr noundef %1, ptr noundef %2, ptr noundef readonly captures(none) %3, i16 noundef zeroext %4) local_unnamed_addr #0 {
  %6 = alloca i32, align 4
  %7 = alloca ptr, align 8
  call void @llvm.lifetime.start.p0(i64 4, ptr nonnull %6) #10
  call void @llvm.lifetime.start.p0(i64 8, ptr nonnull %7) #10
  %8 = load i32, ptr getelementptr inbounds nuw (i8, ptr @pmix_bfrops_base_framework, i64 76), align 4, !tbaa !7
  %or.cond = icmp ult i32 %8, 64
  br i1 %or.cond, label %9, label %16

9:                                                ; preds = %5
  %10 = zext nneg i32 %8 to i64
  %11 = getelementptr inbounds nuw [0 x %struct.pmix_output_desc_t], ptr @pmix_output_info, i64 0, i64 %10, i32 2
  %12 = load i32, ptr %11, align 4, !tbaa !19
  %13 = icmp sgt i32 %12, 19
  br i1 %13, label %14, label %16

14:                                               ; preds = %9
  %15 = load i32, ptr %3, align 4, !tbaa !3
  tail call void (i32, ptr, ...) @pmix_output(i32 noundef %8, ptr noundef nonnull @.str.43, i32 noundef %15) #10
  br label %16

16:                                               ; preds = %14, %9, %5
  %17 = load i32, ptr %3, align 4, !tbaa !3
  %18 = icmp sgt i32 %17, 0
  br i1 %18, label %.lr.ph, label %.loopexit

.lr.ph:                                           ; preds = %16
  %19 = getelementptr inbounds nuw i8, ptr %0, i64 128
  %20 = getelementptr inbounds nuw i8, ptr %0, i64 152
  %wide.trip.count = zext nneg i32 %17 to i64
  br label %21

21:                                               ; preds = %.lr.ph, %32
  %indvars.iv = phi i64 [ 0, %.lr.ph ], [ %indvars.iv.next, %32 ]
  store i32 1, ptr %6, align 4, !tbaa !3
  %22 = load i32, ptr %19, align 8, !tbaa !26
  %.not.i = icmp sgt i32 %22, 3
  br i1 %.not.i, label %pmix_pointer_array_get_item.exit, label %.thread, !prof !29

pmix_pointer_array_get_item.exit:                 ; preds = %21
  %23 = load ptr, ptr %20, align 8, !tbaa !30
  %24 = getelementptr inbounds nuw i8, ptr %23, i64 24
  %25 = load ptr, ptr %24, align 8, !tbaa !31
  %26 = icmp eq ptr %25, null
  br i1 %26, label %.thread, label %27

27:                                               ; preds = %pmix_pointer_array_get_item.exit
  %28 = getelementptr inbounds nuw i8, ptr %25, i64 144
  %29 = load ptr, ptr %28, align 8, !tbaa !32
  %30 = call i32 %29(ptr noundef nonnull %0, ptr noundef %1, ptr noundef nonnull %7, ptr noundef nonnull %6, i16 noundef zeroext 3) #10
  switch i32 %30, label %.thread [
    i32 0, label %32
    i32 -2, label %.loopexit
  ]

.thread:                                          ; preds = %21, %pmix_pointer_array_get_item.exit, %27
  %.01825 = phi i32 [ %30, %27 ], [ -16, %pmix_pointer_array_get_item.exit ], [ -16, %21 ]
  %31 = call ptr @PMIx_Error_string(i32 noundef %.01825) #10
  call void (i32, ptr, ...) @pmix_output(i32 noundef 0, ptr noundef nonnull @.str.6, ptr noundef %31, ptr noundef nonnull @.str.7, i32 noundef 1944) #10
  br label %.loopexit

32:                                               ; preds = %27
  %33 = getelementptr inbounds nuw [256 x i8], ptr %2, i64 %indvars.iv
  %34 = load ptr, ptr %7, align 8, !tbaa !63
  call void @PMIx_Load_nspace(ptr noundef %33, ptr noundef %34) #10
  %35 = load ptr, ptr %7, align 8, !tbaa !63
  call void @free(ptr noundef %35) #10
  %indvars.iv.next = add nuw nsw i64 %indvars.iv, 1
  %exitcond.not = icmp eq i64 %indvars.iv.next, %wide.trip.count
  br i1 %exitcond.not, label %.loopexit, label %21, !llvm.loop !145

.loopexit:                                        ; preds = %27, %32, %16, %.thread
  %.0 = phi i32 [ %.01825, %.thread ], [ 0, %16 ], [ %30, %32 ], [ %30, %27 ]
  call void @llvm.lifetime.end.p0(i64 8, ptr nonnull %7) #10
  call void @llvm.lifetime.end.p0(i64 4, ptr nonnull %6) #10
  ret i32 %.0
}